target datalayout = "e-m:e-p270:32:32-p271:32:32-p272:64:64-i64:64-i128:128-f80:128-n8:16:32:64-S128"
target triple = "x86_64-pc-linux-gnu"

%"class.google::LogMessageVoidify" = type { i8 }
%"class.google::LogMessageFatal" = type { %"class.google::LogMessage" }
%"class.google::LogMessage" = type { ptr, ptr }
%"class.folly::AsyncUDPSocket" = type { %"class.folly::EventHandler", i16, ptr, ptr, %"class.folly::SocketAddress", %"struct.folly::NetworkSocket", i32, %"class.folly::SocketAddress", %"class.folly::SocketAddress", i8, i8, i8, i8, i8, i8, i32, i32, i32, %"class.folly::Optional.13", %"class.folly::Optional.13", %"class.folly::Optional.15", %"class.folly::Optional.13", ptr, i8, i8, i64, i64, i32, %"class.std::unordered_map", %"class.folly::Function", %"class.std::map", %"class.std::map", ptr, %"class.std::map.26", [8 x i8], %"class.folly::Function.31", %"class.folly::netops::DispatcherContainer" }
%"class.folly::EventHandler" = type { ptr, %"class.folly::EventBaseEvent", ptr }
%"class.folly::EventBaseEvent" = type { %struct.event, ptr, ptr, ptr, %"struct.folly::EventCallback" }
%struct.event = type { %struct.event_callback, %union.anon.2, i32, ptr, %union.anon.4, i16, i16, %struct.timeval }
%struct.event_callback = type { %struct.anon, i16, i8, i8, %union.anon.1, ptr }
%struct.anon = type { ptr, ptr }
%union.anon.1 = type { ptr }
%union.anon.2 = type { %struct.anon.3 }
%struct.anon.3 = type { ptr, ptr }
%union.anon.4 = type { %struct.anon.5 }
%struct.anon.5 = type { %struct.anon.6, %struct.timeval }
%struct.anon.6 = type { ptr, ptr }
%struct.timeval = type { i64, i64 }
%"struct.folly::EventCallback" = type { i32, %union.anon.9 }
%union.anon.9 = type { ptr }
%"struct.folly::NetworkSocket" = type { i32 }
%"class.folly::SocketAddress" = type <{ %"union.folly::SocketAddress::AddrStorage", i16, i8, [5 x i8] }>
%"union.folly::SocketAddress::AddrStorage" = type { %"struct.folly::SocketAddress::ExternalUnixAddr", [8 x i8] }
%"struct.folly::SocketAddress::ExternalUnixAddr" = type { ptr, i32 }
%"class.folly::Optional.15" = type { %"struct.folly::Optional<folly::AsyncUDPSocket::TXTime>::StorageTriviallyDestructible" }
%"struct.folly::Optional<folly::AsyncUDPSocket::TXTime>::StorageTriviallyDestructible" = type { %union.anon.16, i8, [3 x i8] }
%union.anon.16 = type { %"struct.folly::AsyncUDPSocket::TXTime" }
%"struct.folly::AsyncUDPSocket::TXTime" = type <{ i32, i8, [3 x i8] }>
%"class.folly::Optional.13" = type { %"struct.folly::Optional<int>::StorageTriviallyDestructible" }
%"struct.folly::Optional<int>::StorageTriviallyDestructible" = type <{ %union.anon.14, i8, [3 x i8] }>
%union.anon.14 = type { i32 }
%"class.std::unordered_map" = type { %"class.std::_Hashtable" }
%"class.std::_Hashtable" = type { ptr, i64, %"struct.std::__detail::_Hash_node_base", i64, %"struct.std::__detail::_Prime_rehash_policy", ptr }
%"struct.std::__detail::_Hash_node_base" = type { ptr }
%"struct.std::__detail::_Prime_rehash_policy" = type { float, i64 }
%"class.folly::Function" = type { %"union.folly::detail::function::Data", ptr, ptr }
%"union.folly::detail::function::Data" = type { %"struct.folly::detail::function::Data::BigTrivialLayout", [24 x i8] }
%"struct.folly::detail::function::Data::BigTrivialLayout" = type { ptr, i64, i64 }
%"class.std::map" = type { %"class.std::_Rb_tree" }
%"class.std::_Rb_tree" = type { %"struct.std::_Rb_tree<folly::SocketOptionKey, std::pair<const folly::SocketOptionKey, int>, std::_Select1st<std::pair<const folly::SocketOptionKey, int>>, std::less<folly::SocketOptionKey>>::_Rb_tree_impl" }
%"struct.std::_Rb_tree<folly::SocketOptionKey, std::pair<const folly::SocketOptionKey, int>, std::_Select1st<std::pair<const folly::SocketOptionKey, int>>, std::less<folly::SocketOptionKey>>::_Rb_tree_impl" = type { [8 x i8], %"struct.std::_Rb_tree_header" }
%"struct.std::_Rb_tree_header" = type { %"struct.std::_Rb_tree_node_base", i64 }
%"struct.std::_Rb_tree_node_base" = type { i32, ptr, ptr, ptr }
%"class.std::map.26" = type { %"class.std::_Rb_tree.27" }
%"class.std::_Rb_tree.27" = type { %"struct.std::_Rb_tree<folly::SocketOptionKey, std::pair<const folly::SocketOptionKey, std::__cxx11::basic_string<char>>, std::_Select1st<std::pair<const folly::SocketOptionKey, std::__cxx11::basic_string<char>>>, std::less<folly::SocketOptionKey>>::_Rb_tree_impl" }
%"struct.std::_Rb_tree<folly::SocketOptionKey, std::pair<const folly::SocketOptionKey, std::__cxx11::basic_string<char>>, std::_Select1st<std::pair<const folly::SocketOptionKey, std::__cxx11::basic_string<char>>>, std::less<folly::SocketOptionKey>>::_Rb_tree_impl" = type { [8 x i8], %"struct.std::_Rb_tree_header" }
%"class.folly::Function.31" = type { %"union.folly::detail::function::Data", ptr, ptr }
%"class.folly::netops::DispatcherContainer" = type { %"class.std::shared_ptr" }
%"class.std::shared_ptr" = type { %"class.std::__shared_ptr" }
%"class.std::__shared_ptr" = type { ptr, %"class.std::__shared_count" }
%"class.std::__shared_count" = type { ptr }
%"class.std::ios_base" = type { ptr, i64, i64, i32, i32, i32, ptr, %"struct.std::ios_base::_Words", [8 x %"struct.std::ios_base::_Words"], i32, ptr, %"class.std::locale" }
%"struct.std::ios_base::_Words" = type { ptr, i64 }
%"class.std::locale" = type { ptr }

@.str.36 = private unnamed_addr constant [123 x i8] c"generated/home/dtcxzyw/WorkSpace/Projects/compilers/llvm-opt-benchmark/bench/folly/folly/folly/io/async/AsyncUDPSocket.cpp\00", align 1
@.str.70 = private unnamed_addr constant [27 x i8] c"Check failed: !eventBase_ \00", align 1
@.str.71 = private unnamed_addr constant [49 x i8] c"Check failed: evb && evb->isInEventBaseThread() \00", align 1

; Function Attrs: inlinehint mustprogress nounwind uwtable
define linkonce_odr noundef i32 @_ZStorSt12_Ios_IostateS_(i32 noundef %0, i32 noundef %1) #4 comdat {
  %3 = alloca i32, align 4
  %4 = alloca i32, align 4
  store i32 %0, ptr %3, align 4, !tbaa !449
  store i32 %1, ptr %4, align 4, !tbaa !449
  %5 = load i32, ptr %3, align 4, !tbaa !449
  %6 = load i32, ptr %4, align 4, !tbaa !449
  %7 = or i32 %5, %6
  ret i32 %7
}

; Function Attrs: mustprogress nounwind uwtable
define available_externally noundef i32 @_ZNKSt9basic_iosIcSt11char_traitsIcEE7rdstateEv(ptr noundef nonnull align 8 dereferenceable(264) %0) #0 align 2 {
  %2 = alloca ptr, align 8
  store ptr %0, ptr %2, align 8, !tbaa !447
  %3 = load ptr, ptr %2, align 8
  %4 = getelementptr inbounds nuw %"class.std::ios_base", ptr %3, i32 0, i32 5
  %5 = load i32, ptr %4, align 8, !tbaa !451
  ret i32 %5
}

; Function Attrs: mustprogress uwtable
define linkonce_odr noundef zeroext i1 @_ZN5folly12EventHandler15registerHandlerEt(ptr noundef nonnull align 8 dereferenceable(184) %0, i16 noundef zeroext %1) #1 comdat align 2 {
  %3 = alloca ptr, align 8
  %4 = alloca i16, align 2
  store ptr %0, ptr %3, align 8, !tbaa !746
  store i16 %1, ptr %4, align 2, !tbaa !12
  %5 = load ptr, ptr %3, align 8
  %6 = load i16, ptr %4, align 2, !tbaa !12
  %7 = call noundef zeroext i1 @_ZN5folly12EventHandler12registerImplEtb(ptr noundef nonnull align 8 dereferenceable(184) %5, i16 noundef zeroext %6, i1 noundef zeroext false)
  ret i1 %7
}

; Function Attrs: mustprogress nounwind uwtable
define linkonce_odr noundef i64 @_ZNSt11char_traitsIcE6lengthEPKc(ptr noundef %0) #0 comdat align 2 {
  %2 = alloca ptr, align 8
  store ptr %0, ptr %2, align 8, !tbaa !137
  %3 = load ptr, ptr %2, align 8, !tbaa !137
  %4 = call i64 @strlen(ptr noundef %3) #25
  ret i64 %4
}

; Function Attrs: mustprogress uwtable
define available_externally void @_ZNSt9basic_iosIcSt11char_traitsIcEE8setstateESt12_Ios_Iostate(ptr noundef nonnull align 8 dereferenceable(264) %0, i32 noundef %1) #1 align 2 {
  %3 = alloca ptr, align 8
  %4 = alloca i32, align 4
  store ptr %0, ptr %3, align 8, !tbaa !447
  store i32 %1, ptr %4, align 4, !tbaa !449
  %5 = load ptr, ptr %3, align 8
  %6 = call noundef i32 @_ZNKSt9basic_iosIcSt11char_traitsIcEE7rdstateEv(ptr noundef nonnull align 8 dereferenceable(264) %5)
  %7 = load i32, ptr %4, align 4, !tbaa !449
  %8 = call noundef i32 @_ZStorSt12_Ios_IostateS_(i32 noundef %6, i32 noundef %7)
  call void @_ZNSt9basic_iosIcSt11char_traitsIcEE5clearESt12_Ios_Iostate(ptr noundef nonnull align 8 dereferenceable(264) %5, i32 noundef %8)
  ret void
}

; Function Attrs: mustprogress nounwind uwtable
define noundef zeroext i1 @_ZN5folly14AsyncUDPSocket18updateRegistrationEv(ptr noundef nonnull align 16 dereferenceable(768) %0) #0 align 2 personality ptr @__gxx_personality_v0 {
  %2 = alloca ptr, align 8
  %3 = alloca i16, align 2
  store ptr %0, ptr %2, align 8, !tbaa !7
  %4 = load ptr, ptr %2, align 8
  call void @llvm.lifetime.start.p0(i64 2, ptr %3) #25
  store i16 0, ptr %3, align 2, !tbaa !12
  %5 = getelementptr inbounds nuw %"class.folly::AsyncUDPSocket", ptr %4, i32 0, i32 2
  %6 = load ptr, ptr %5, align 16, !tbaa !14
  %7 = icmp ne ptr %6, null
  br i1 %7, label %8, label %13

8:                                                ; preds = %1
  %9 = load i16, ptr %3, align 2, !tbaa !12
  %10 = zext i16 %9 to i32
  %11 = or i32 %10, 2
  %12 = trunc i32 %11 to i16
  store i16 %12, ptr %3, align 2, !tbaa !12
  br label %13

13:                                               ; preds = %8, %1
  %14 = load i16, ptr %3, align 2, !tbaa !12
  %15 = zext i16 %14 to i32
  %16 = or i32 %15, 16
  %17 = trunc i32 %16 to i16
  %18 = invoke noundef zeroext i1 @_ZN5folly12EventHandler15registerHandlerEt(ptr noundef nonnull align 8 dereferenceable(184) %4, i16 noundef zeroext %17)
          to label %19 unwind label %20

19:                                               ; preds = %13
  call void @llvm.lifetime.end.p0(i64 2, ptr %3) #25
  ret i1 %18

20:                                               ; preds = %13
  %21 = landingpad { ptr, i32 }
          catch ptr null
  %22 = extractvalue { ptr, i32 } %21, 0
  call void @__clang_call_terminate(ptr %22) #31
  unreachable
}

; Function Attrs: mustprogress nounwind uwtable
define linkonce_odr void @_ZN6google17LogMessageVoidifyanERSo(ptr noundef nonnull align 1 dereferenceable(1) %0, ptr noundef nonnull align 8 dereferenceable(8) %1) #0 comdat align 2 {
  %3 = alloca ptr, align 8
  %4 = alloca ptr, align 8
  store ptr %0, ptr %3, align 8, !tbaa !526
  store ptr %1, ptr %4, align 8, !tbaa !440
  ret void
}

; Function Attrs: inlinehint mustprogress uwtable
define available_externally noundef nonnull align 8 dereferenceable(8) ptr @_ZStlsISt11char_traitsIcEERSt13basic_ostreamIcT_ES5_PKc(ptr noundef nonnull align 8 dereferenceable(8) %0, ptr noundef %1) #18 {
  %3 = alloca ptr, align 8
  %4 = alloca ptr, align 8
  store ptr %0, ptr %3, align 8, !tbaa !440
  store ptr %1, ptr %4, align 8, !tbaa !137
  %5 = load ptr, ptr %4, align 8, !tbaa !137
  %6 = icmp ne ptr %5, null
  br i1 %6, label %13, label %7

7:                                                ; preds = %2
  %8 = load ptr, ptr %3, align 8, !tbaa !440
  %9 = load ptr, ptr %8, align 8, !tbaa !96
  %10 = getelementptr i8, ptr %9, i64 -24
  %11 = load i64, ptr %10, align 8
  %12 = getelementptr inbounds i8, ptr %8, i64 %11
  call void @_ZNSt9basic_iosIcSt11char_traitsIcEE8setstateESt12_Ios_Iostate(ptr noundef nonnull align 8 dereferenceable(264) %12, i32 noundef 1)
  br label %19

13:                                               ; preds = %2
  %14 = load ptr, ptr %3, align 8, !tbaa !440
  %15 = load ptr, ptr %4, align 8, !tbaa !137
  %16 = load ptr, ptr %4, align 8, !tbaa !137
  %17 = call noundef i64 @_ZNSt11char_traitsIcE6lengthEPKc(ptr noundef %16)
  %18 = call noundef nonnull align 8 dereferenceable(8) ptr @_ZSt16__ostream_insertIcSt11char_traitsIcEERSt13basic_ostreamIT_T0_ES6_PKS3_l(ptr noundef nonnull align 8 dereferenceable(8) %14, ptr noundef %15, i64 noundef %17)
  br label %19

19:                                               ; preds = %13, %7
  %20 = load ptr, ptr %3, align 8, !tbaa !440
  ret ptr %20
}

; Function Attrs: mustprogress nounwind uwtable
define linkonce_odr void @_ZN6google17LogMessageVoidifyC2Ev(ptr noundef nonnull align 1 dereferenceable(1) %0) unnamed_addr #0 comdat align 2 {
  %2 = alloca ptr, align 8
  store ptr %0, ptr %2, align 8, !tbaa !526
  ret void
}

; Function Attrs: mustprogress uwtable
define void @_ZN5folly14AsyncUDPSocket15attachEventBaseEPNS_9EventBaseE(ptr noundef nonnull align 16 dereferenceable(768) %0, ptr noundef %1) unnamed_addr #1 align 2 personality ptr @__gxx_personality_v0 {
  %3 = alloca ptr, align 8
  %4 = alloca ptr, align 8
  %5 = alloca %"class.google::LogMessageVoidify", align 1
  %6 = alloca %"class.google::LogMessageFatal", align 8
  %7 = alloca i1, align 1
  %8 = alloca i1, align 1
  %9 = alloca ptr, align 8
  %10 = alloca i32, align 4
  %11 = alloca %"class.google::LogMessageVoidify", align 1
  %12 = alloca %"class.google::LogMessageFatal", align 8
  %13 = alloca i1, align 1
  %14 = alloca i1, align 1
  store ptr %0, ptr %3, align 8, !tbaa !7
  store ptr %1, ptr %4, align 8, !tbaa !161
  %15 = load ptr, ptr %3, align 8
  br label %16

16:                                               ; preds = %44, %2
  br i1 false, label %17, label %51

17:                                               ; preds = %16
  %18 = getelementptr inbounds nuw %"class.folly::AsyncUDPSocket", ptr %15, i32 0, i32 3
  %19 = load ptr, ptr %18, align 8, !tbaa !149
  %20 = icmp ne ptr %19, null
  %21 = xor i1 %20, true
  %22 = xor i1 %21, true
  %23 = zext i1 %22 to i64
  %24 = call i64 @llvm.expect.i64(i64 %23, i64 0)
  %25 = icmp ne i64 %24, 0
  call void @llvm.lifetime.start.p0(i64 1, ptr %5) #25
  store i1 false, ptr %7, align 1
  store i1 false, ptr %8, align 1
  br i1 %25, label %27, label %26

26:                                               ; preds = %17
  br label %32

27:                                               ; preds = %17
  call void @_ZN6google17LogMessageVoidifyC2Ev(ptr noundef nonnull align 1 dereferenceable(1) %5)
  call void @llvm.lifetime.start.p0(i64 16, ptr %6) #25
  store i1 true, ptr %7, align 1
  call void @_ZN6google15LogMessageFatalC1EPKci(ptr noundef nonnull align 8 dereferenceable(16) %6, ptr noundef @.str.36, i32 noundef 1662)
  store i1 true, ptr %8, align 1
  %28 = invoke noundef nonnull align 8 dereferenceable(8) ptr @_ZN6google10LogMessage6streamEv(ptr noundef nonnull align 8 dereferenceable(16) %6)
          to label %29 unwind label %35

29:                                               ; preds = %27
  %30 = invoke noundef nonnull align 8 dereferenceable(8) ptr @_ZStlsISt11char_traitsIcEERSt13basic_ostreamIcT_ES5_PKc(ptr noundef nonnull align 8 dereferenceable(8) %28, ptr noundef @.str.70)
          to label %31 unwind label %35

31:                                               ; preds = %29
  call void @_ZN6google17LogMessageVoidifyanERSo(ptr noundef nonnull align 1 dereferenceable(1) %5, ptr noundef nonnull align 8 dereferenceable(8) %30)
  br label %32

32:                                               ; preds = %31, %26
  %33 = load i1, ptr %8, align 1
  br i1 %33, label %34, label %41

34:                                               ; preds = %32
  call void @_ZN6google15LogMessageFatalD1Ev(ptr noundef nonnull align 8 dereferenceable(16) %6) #31
  unreachable

35:                                               ; preds = %29, %27
  %36 = landingpad { ptr, i32 }
          cleanup
  %37 = extractvalue { ptr, i32 } %36, 0
  store ptr %37, ptr %9, align 8
  %38 = extractvalue { ptr, i32 } %36, 1
  store i32 %38, ptr %10, align 4
  %39 = load i1, ptr %8, align 1
  br i1 %39, label %45, label %47

40:                                               ; No predecessors!
  br label %41

41:                                               ; preds = %40, %32
  %42 = load i1, ptr %7, align 1
  br i1 %42, label %43, label %44

43:                                               ; preds = %41
  call void @llvm.lifetime.end.p0(i64 16, ptr %6) #25
  br label %44

44:                                               ; preds = %43, %41
  call void @llvm.lifetime.end.p0(i64 1, ptr %5) #25
  br label %16, !llvm.loop !162

45:                                               ; preds = %35
  call void @_ZN6google15LogMessageFatalD1Ev(ptr noundef nonnull align 8 dereferenceable(16) %6) #31
  unreachable

46:                                               ; No predecessors!
  br label %47

47:                                               ; preds = %46, %35
  %48 = load i1, ptr %7, align 1
  br i1 %48, label %49, label %50

49:                                               ; preds = %47
  call void @llvm.lifetime.end.p0(i64 16, ptr %6) #25
  br label %50

50:                                               ; preds = %49, %47
  call void @llvm.lifetime.end.p0(i64 1, ptr %5) #25
  br label %95

51:                                               ; preds = %16
  br label %52

52:                                               ; preds = %83, %51
  br i1 false, label %53, label %90

53:                                               ; preds = %52
  %54 = load ptr, ptr %4, align 8, !tbaa !161
  %55 = icmp ne ptr %54, null
  call void @llvm.lifetime.start.p0(i64 1, ptr %11) #25
  store i1 false, ptr %13, align 1
  store i1 false, ptr %14, align 1
  br i1 %55, label %56, label %59

56:                                               ; preds = %53
  %57 = load ptr, ptr %4, align 8, !tbaa !161
  %58 = call noundef zeroext i1 @_ZNK5folly9EventBase19isInEventBaseThreadEv(ptr noundef nonnull align 16 dereferenceable(632) %57)
  br label %59

59:                                               ; preds = %56, %53
  %60 = phi i1 [ false, %53 ], [ %58, %56 ]
  %61 = xor i1 %60, true
  %62 = zext i1 %61 to i64
  %63 = call i64 @llvm.expect.i64(i64 %62, i64 0)
  %64 = icmp ne i64 %63, 0
  br i1 %64, label %66, label %65

65:                                               ; preds = %59
  br label %71

66:                                               ; preds = %59
  call void @_ZN6google17LogMessageVoidifyC2Ev(ptr noundef nonnull align 1 dereferenceable(1) %11)
  call void @llvm.lifetime.start.p0(i64 16, ptr %12) #25
  store i1 true, ptr %13, align 1
  call void @_ZN6google15LogMessageFatalC1EPKci(ptr noundef nonnull align 8 dereferenceable(16) %12, ptr noundef @.str.36, i32 noundef 1663)
  store i1 true, ptr %14, align 1
  %67 = invoke noundef nonnull align 8 dereferenceable(8) ptr @_ZN6google10LogMessage6streamEv(ptr noundef nonnull align 8 dereferenceable(16) %12)
          to label %68 unwind label %74

68:                                               ; preds = %66
  %69 = invoke noundef nonnull align 8 dereferenceable(8) ptr @_ZStlsISt11char_traitsIcEERSt13basic_ostreamIcT_ES5_PKc(ptr noundef nonnull align 8 dereferenceable(8) %67, ptr noundef @.str.71)
          to label %70 unwind label %74

70:                                               ; preds = %68
  call void @_ZN6google17LogMessageVoidifyanERSo(ptr noundef nonnull align 1 dereferenceable(1) %11, ptr noundef nonnull align 8 dereferenceable(8) %69)
  br label %71

71:                                               ; preds = %70, %65
  %72 = load i1, ptr %14, align 1
  br i1 %72, label %73, label %80

73:                                               ; preds = %71
  call void @_ZN6google15LogMessageFatalD1Ev(ptr noundef nonnull align 8 dereferenceable(16) %12) #31
  unreachable

74:                                               ; preds = %68, %66
  %75 = landingpad { ptr, i32 }
          cleanup
  %76 = extractvalue { ptr, i32 } %75, 0
  store ptr %76, ptr %9, align 8
  %77 = extractvalue { ptr, i32 } %75, 1
  store i32 %77, ptr %10, align 4
  %78 = load i1, ptr %14, align 1
  br i1 %78, label %84, label %86

79:                                               ; No predecessors!
  br label %80

80:                                               ; preds = %79, %71
  %81 = load i1, ptr %13, align 1
  br i1 %81, label %82, label %83

82:                                               ; preds = %80
  call void @llvm.lifetime.end.p0(i64 16, ptr %12) #25
  br label %83

83:                                               ; preds = %82, %80
  call void @llvm.lifetime.end.p0(i64 1, ptr %11) #25
  br label %52, !llvm.loop !163

84:                                               ; preds = %74
  call void @_ZN6google15LogMessageFatalD1Ev(ptr noundef nonnull align 8 dereferenceable(16) %12) #31
  unreachable

85:                                               ; No predecessors!
  br label %86

86:                                               ; preds = %85, %74
  %87 = load i1, ptr %13, align 1
  br i1 %87, label %88, label %89

88:                                               ; preds = %86
  call void @llvm.lifetime.end.p0(i64 16, ptr %12) #25
  br label %89

89:                                               ; preds = %88, %86
  call void @llvm.lifetime.end.p0(i64 1, ptr %11) #25
  br label %95

90:                                               ; preds = %52
  %91 = load ptr, ptr %4, align 8, !tbaa !161
  %92 = getelementptr inbounds nuw %"class.folly::AsyncUDPSocket", ptr %15, i32 0, i32 3
  store ptr %91, ptr %92, align 8, !tbaa !149
  %93 = load ptr, ptr %4, align 8, !tbaa !161
  call void @_ZN5folly12EventHandler15attachEventBaseEPNS_9EventBaseE(ptr noundef nonnull align 8 dereferenceable(184) %15, ptr noundef %93)
  %94 = call noundef zeroext i1 @_ZN5folly14AsyncUDPSocket18updateRegistrationEv(ptr noundef nonnull align 16 dereferenceable(768) %15) #25
  ret void

95:                                               ; preds = %89, %50
  %96 = load ptr, ptr %9, align 8
  %97 = load i32, ptr %10, align 4
  %98 = insertvalue { ptr, i32 } poison, ptr %96, 0
  %99 = insertvalue { ptr, i32 } %98, i32 %97, 1
  resume { ptr, i32 } %99
}