; Function Attrs: mustprogress uwtable
define void @_ZN5folly14AsyncUDPSocket15attachEventBaseEPNS_9EventBaseE(ptr noundef nonnull align 16 dereferenceable(768) initializes((200, 208)) %0, ptr noundef %1) unnamed_addr #1 align 2 personality ptr @__gxx_personality_v0 {
  %3 = getelementptr inbounds nuw i8, ptr %0, i64 200
  store ptr %1, ptr %3, align 8, !tbaa !172
  tail call void @_ZN5folly12EventHandler15attachEventBaseEPNS_9EventBaseE(ptr noundef nonnull align 8 dereferenceable(184) %0, ptr noundef %1)
  %4 = getelementptr inbounds nuw i8, ptr %0, i64 192
  %5 = load ptr, ptr %4, align 16, !tbaa !155
  %.not.i = icmp eq ptr %5, null
  %spec.select.i = select i1 %.not.i, i16 16, i16 18
  %6 = invoke noundef zeroext i1 @_ZN5folly12EventHandler12registerImplEtb(ptr noundef nonnull align 16 dereferenceable(768) %0, i16 noundef zeroext %spec.select.i, i1 noundef zeroext false)
          to label %_ZN5folly14AsyncUDPSocket18updateRegistrationEv.exit unwind label %7

7:                                                ; preds = %2
  %8 = landingpad { ptr, i32 }
          catch ptr null
  %9 = extractvalue { ptr, i32 } %8, 0
  tail call void @__clang_call_terminate(ptr %9) #38
  unreachable

_ZN5folly14AsyncUDPSocket18updateRegistrationEv.exit: ; preds = %2
  ret void
}